target datalayout = "e-m:e-p270:32:32-p271:32:32-p272:64:64-i64:64-i128:128-f80:128-n8:16:32:64-S128"
target triple = "x86_64-pc-linux-gnu"

; Function Attrs: mustprogress nounwind uwtable
define ptr @u_skipWhitespace(ptr noundef %0) #0 {
  %2 = alloca ptr, align 8
  store ptr %0, ptr %2, align 8, !tbaa !3
  br label %3

3:                                                ; preds = %25, %1
  %4 = load ptr, ptr %2, align 8, !tbaa !3
  %5 = load i8, ptr %4, align 1, !tbaa !8
  %6 = sext i8 %5 to i32
  %7 = icmp eq i32 %6, 32
  br i1 %7, label %23, label %8

8:                                                ; preds = %3
  %9 = load ptr, ptr %2, align 8, !tbaa !3
  %10 = load i8, ptr %9, align 1, !tbaa !8
  %11 = sext i8 %10 to i32
  %12 = icmp eq i32 %11, 9
  br i1 %12, label %23, label %13

13:                                               ; preds = %8
  %14 = load ptr, ptr %2, align 8, !tbaa !3
  %15 = load i8, ptr %14, align 1, !tbaa !8
  %16 = sext i8 %15 to i32
  %17 = icmp eq i32 %16, 13
  br i1 %17, label %23, label %18

18:                                               ; preds = %13
  %19 = load ptr, ptr %2, align 8, !tbaa !3
  %20 = load i8, ptr %19, align 1, !tbaa !8
  %21 = sext i8 %20 to i32
  %22 = icmp eq i32 %21, 10
  br label %23

23:                                               ; preds = %18, %13, %8, %3
  %24 = phi i1 [ true, %13 ], [ true, %8 ], [ true, %3 ], [ %22, %18 ]
  br i1 %24, label %25, label %28

25:                                               ; preds = %23
  %26 = load ptr, ptr %2, align 8, !tbaa !3
  %27 = getelementptr inbounds nuw i8, ptr %26, i32 1
  store ptr %27, ptr %2, align 8, !tbaa !3
  br label %3, !llvm.loop !9

28:                                               ; preds = %23
  %29 = load ptr, ptr %2, align 8, !tbaa !3
  ret ptr %29
}

; Function Attrs: inlinehint mustprogress nounwind uwtable
define internal noundef signext i8 @_ZL9U_SUCCESS10UErrorCode(i32 noundef %0) #4 {
  %2 = alloca i32, align 4
  store i32 %0, ptr %2, align 4, !tbaa !18
  %3 = load i32, ptr %2, align 4, !tbaa !18
  %4 = icmp sle i32 %3, 0
  %5 = zext i1 %4 to i8
  ret i8 %5
}

; Function Attrs: mustprogress uwtable
define i32 @u_parseCodePointRange(ptr noundef %0, ptr noundef %1, ptr noundef %2, ptr noundef %3) #3 {
  %5 = alloca i32, align 4
  %6 = alloca ptr, align 8
  %7 = alloca ptr, align 8
  %8 = alloca ptr, align 8
  %9 = alloca ptr, align 8
  %10 = alloca ptr, align 8
  %11 = alloca i32, align 4
  %12 = alloca i32, align 4
  store ptr %0, ptr %6, align 8, !tbaa !3
  store ptr %1, ptr %7, align 8, !tbaa !26
  store ptr %2, ptr %8, align 8, !tbaa !26
  store ptr %3, ptr %9, align 8, !tbaa !17
  call void @llvm.lifetime.start.p0(i64 8, ptr %10) #7
  call void @llvm.lifetime.start.p0(i64 4, ptr %11) #7
  %13 = load ptr, ptr %6, align 8, !tbaa !3
  %14 = load ptr, ptr %7, align 8, !tbaa !26
  %15 = load ptr, ptr %8, align 8, !tbaa !26
  %16 = load ptr, ptr %9, align 8, !tbaa !17
  %17 = call i32 @u_parseCodePointRangeAnyTerminator(ptr noundef %13, ptr noundef %14, ptr noundef %15, ptr noundef %10, ptr noundef %16)
  store i32 %17, ptr %11, align 4, !tbaa !15
  %18 = load ptr, ptr %9, align 8, !tbaa !17
  %19 = load i32, ptr %18, align 4, !tbaa !18
  %20 = call noundef signext i8 @_ZL9U_SUCCESS10UErrorCode(i32 noundef %19)
  %21 = icmp ne i8 %20, 0
  br i1 %21, label %22, label %37

22:                                               ; preds = %4
  %23 = load ptr, ptr %10, align 8, !tbaa !3
  %24 = call ptr @u_skipWhitespace(ptr noundef %23)
  store ptr %24, ptr %10, align 8, !tbaa !3
  %25 = load ptr, ptr %10, align 8, !tbaa !3
  %26 = load i8, ptr %25, align 1, !tbaa !8
  %27 = sext i8 %26 to i32
  %28 = icmp ne i32 %27, 59
  br i1 %28, label %29, label %36

29:                                               ; preds = %22
  %30 = load ptr, ptr %10, align 8, !tbaa !3
  %31 = load i8, ptr %30, align 1, !tbaa !8
  %32 = sext i8 %31 to i32
  %33 = icmp ne i32 %32, 0
  br i1 %33, label %34, label %36

34:                                               ; preds = %29
  %35 = load ptr, ptr %9, align 8, !tbaa !17
  store i32 9, ptr %35, align 4, !tbaa !18
  store i32 0, ptr %5, align 4
  store i32 1, ptr %12, align 4
  br label %39

36:                                               ; preds = %29, %22
  br label %37

37:                                               ; preds = %36, %4
  %38 = load i32, ptr %11, align 4, !tbaa !15
  store i32 %38, ptr %5, align 4
  store i32 1, ptr %12, align 4
  br label %39

39:                                               ; preds = %37, %34
  call void @llvm.lifetime.end.p0(i64 4, ptr %11) #7
  call void @llvm.lifetime.end.p0(i64 8, ptr %10) #7
  %40 = load i32, ptr %5, align 4
  ret i32 %40
}