; Function Attrs: mustprogress nofree nounwind uwtable
define range(i32 0, 1114113) i32 @u_parseCodePointRange(ptr noundef %0, ptr noundef %1, ptr noundef %2, ptr noundef captures(none) %3) local_unnamed_addr #6 {
  %5 = alloca ptr, align 8
  call void @llvm.lifetime.start.p0(i64 8, ptr nonnull %5) #9
  %6 = call i32 @u_parseCodePointRangeAnyTerminator(ptr noundef %0, ptr noundef %1, ptr noundef %2, ptr noundef nonnull %5, ptr noundef %3)
  %7 = load i32, ptr %3, align 4, !tbaa !9
  %8 = icmp sgt i32 %7, 0
  br i1 %8, label %.loopexit, label %9

9:                                                ; preds = %4
  %10 = load ptr, ptr %5, align 8, !tbaa !14
  br label %11

11:                                               ; preds = %.critedge.i, %9
  %.0.i = phi ptr [ %10, %9 ], [ %13, %.critedge.i ]
  %12 = load i8, ptr %.0.i, align 1, !tbaa !3
  switch i8 %12, label %14 [
    i8 32, label %.critedge.i
    i8 9, label %.critedge.i
    i8 13, label %.critedge.i
    i8 10, label %.critedge.i
    i8 59, label %.loopexit
    i8 0, label %.loopexit
  ]

.critedge.i:                                      ; preds = %11, %11, %11, %11
  %13 = getelementptr inbounds nuw i8, ptr %.0.i, i64 1
  br label %11, !llvm.loop !6

14:                                               ; preds = %11
  store i32 9, ptr %3, align 4, !tbaa !9
  br label %.loopexit

.loopexit:                                        ; preds = %11, %11, %4, %14
  %.0 = phi i32 [ 0, %14 ], [ %6, %4 ], [ %6, %11 ], [ %6, %11 ]
  call void @llvm.lifetime.end.p0(i64 8, ptr nonnull %5) #9
  ret i32 %.0
}